(dp0
I0
S'n02085620-Chihuahua'
p1
sI1
S'n02085782-Japanese_spaniel'
p2
sI2
S'n02085936-Maltese_dog'
p3
sI3
S'n02086079-Pekinese'
p4
sI4
S'n02086240-Shih-Tzu'
p5
sI5
S'n02086646-Blenheim_spaniel'
p6
sI6
S'n02086910-papillon'
p7
sI7
S'n02087046-toy_terrier'
p8
sI8
S'n02087394-Rhodesian_ridgeback'
p9
sI9
S'n02088094-Afghan_hound'
p10
sI10
S'n02088238-basset'
p11
sI11
S'n02088364-beagle'
p12
sI12
S'n02088466-bloodhound'
p13
sI13
S'n02088632-bluetick'
p14
sI14
S'n02089078-black-and-tan_coonhound'
p15
sI15
S'n02089867-Walker_hound'
p16
sI16
S'n02089973-English_foxhound'
p17
sI17
S'n02090379-redbone'
p18
sI18
S'n02090622-borzoi'
p19
sI19
S'n02090721-Irish_wolfhound'
p20
sI20
S'n02091032-Italian_greyhound'
p21
sI21
S'n02091134-whippet'
p22
sI22
S'n02091244-Ibizan_hound'
p23
sI23
S'n02091467-Norwegian_elkhound'
p24
sI24
S'n02091635-otterhound'
p25
sI25
S'n02091831-Saluki'
p26
sI26
S'n02092002-Scottish_deerhound'
p27
sI27
S'n02092339-Weimaraner'
p28
sI28
S'n02093256-Staffordshire_bullterrier'
p29
sI29
S'n02093428-American_Staffordshire_terrier'
p30
sI30
S'n02093647-Bedlington_terrier'
p31
sI31
S'n02093754-Border_terrier'
p32
sI32
S'n02093859-Kerry_blue_terrier'
p33
sI33
S'n02093991-Irish_terrier'
p34
sI34
S'n02094114-Norfolk_terrier'
p35
sI35
S'n02094258-Norwich_terrier'
p36
sI36
S'n02094433-Yorkshire_terrier'
p37
sI37
S'n02095314-wire-haired_fox_terrier'
p38
sI38
S'n02095570-Lakeland_terrier'
p39
sI39
S'n02095889-Sealyham_terrier'
p40
sI40
S'n02096051-Airedale'
p41
sI41
S'n02096177-cairn'
p42
sI42
S'n02096294-Australian_terrier'
p43
sI43
S'n02096437-Dandie_Dinmont'
p44
sI44
S'n02096585-Boston_bull'
p45
sI45
S'n02097047-miniature_schnauzer'
p46
sI46
S'n02097130-giant_schnauzer'
p47
sI47
S'n02097209-standard_schnauzer'
p48
sI48
S'n02097298-Scotch_terrier'
p49
sI49
S'n02097474-Tibetan_terrier'
p50
sI50
S'n02097658-silky_terrier'
p51
sI51
S'n02098105-soft-coated_wheaten_terrier'
p52
sI52
S'n02098286-West_Highland_white_terrier'
p53
sI53
S'n02098413-Lhasa'
p54
sI54
S'n02099267-flat-coated_retriever'
p55
sI55
S'n02099429-curly-coated_retriever'
p56
sI56
S'n02099601-golden_retriever'
p57
sI57
S'n02099712-Labrador_retriever'
p58
sI58
S'n02099849-Chesapeake_Bay_retriever'
p59
sI59
S'n02100236-German_short-haired_pointer'
p60
sI60
S'n02100583-vizsla'
p61
sI61
S'n02100735-English_setter'
p62
sI62
S'n02100877-Irish_setter'
p63
sI63
S'n02101006-Gordon_setter'
p64
sI64
S'n02101388-Brittany_spaniel'
p65
sI65
S'n02101556-clumber'
p66
sI66
S'n02102040-English_springer'
p67
sI67
S'n02102177-Welsh_springer_spaniel'
p68
sI68
S'n02102318-cocker_spaniel'
p69
sI69
S'n02102480-Sussex_spaniel'
p70
sI70
S'n02102973-Irish_water_spaniel'
p71
sI71
S'n02104029-kuvasz'
p72
sI72
S'n02104365-schipperke'
p73
sI73
S'n02105056-groenendael'
p74
sI74
S'n02105162-malinois'
p75
sI75
S'n02105251-briard'
p76
sI76
S'n02105412-kelpie'
p77
sI77
S'n02105505-komondor'
p78
sI78
S'n02105641-Old_English_sheepdog'
p79
sI79
S'n02105855-Shetland_sheepdog'
p80
sI80
S'n02106030-collie'
p81
sI81
S'n02106166-Border_collie'
p82
sI82
S'n02106382-Bouvier_des_Flandres'
p83
sI83
S'n02106550-Rottweiler'
p84
sI84
S'n02106662-German_shepherd'
p85
sI85
S'n02107142-Doberman'
p86
sI86
S'n02107312-miniature_pinscher'
p87
sI87
S'n02107574-Greater_Swiss_Mountain_dog'
p88
sI88
S'n02107683-Bernese_mountain_dog'
p89
sI89
S'n02107908-Appenzeller'
p90
sI90
S'n02108000-EntleBucher'
p91
sI91
S'n02108089-boxer'
p92
sI92
S'n02108422-bull_mastiff'
p93
sI93
S'n02108551-Tibetan_mastiff'
p94
sI94
S'n02108915-French_bulldog'
p95
sI95
S'n02109047-Great_Dane'
p96
sI96
S'n02109525-Saint_Bernard'
p97
sI97
S'n02109961-Eskimo_dog'
p98
sI98
S'n02110063-malamute'
p99
sI99
S'n02110185-Siberian_husky'
p100
sI100
S'n02110627-affenpinscher'
p101
sI101
S'n02110806-basenji'
p102
sI102
S'n02110958-pug'
p103
sI103
S'n02111129-Leonberg'
p104
sI104
S'n02111277-Newfoundland'
p105
sI105
S'n02111500-Great_Pyrenees'
p106
sI106
S'n02111889-Samoyed'
p107
sI107
S'n02112018-Pomeranian'
p108
sI108
S'n02112137-chow'
p109
sI109
S'n02112350-keeshond'
p110
sI110
S'n02112706-Brabancon_griffon'
p111
sI111
S'n02113023-Pembroke'
p112
sI112
S'n02113186-Cardigan'
p113
sI113
S'n02113624-toy_poodle'
p114
sI114
S'n02113712-miniature_poodle'
p115
sI115
S'n02113799-standard_poodle'
p116
sI116
S'n02113978-Mexican_hairless'
p117
sI117
S'n02115641-dingo'
p118
sI118
S'n02115913-dhole'
p119
sI119
S'n02116738-African_hunting_dog'
p120
s.